target datalayout = "e-m:e-p270:32:32-p271:32:32-p272:64:64-i64:64-i128:128-f80:128-n8:16:32:64-S128"
target triple = "x86_64-pc-linux-gnu"

%class.LIR_Opr = type { i64 }
%class.PhiResolverState = type { %class.GrowableArray, %class.GrowableArray, %class.GrowableArray }
%class.GrowableArray = type { %class.GrowableArrayWithAllocator, %class.GrowableArrayMetadata }
%class.GrowableArrayWithAllocator = type { %class.GrowableArrayView }
%class.GrowableArrayView = type { %class.GrowableArrayBase, ptr }
%class.GrowableArrayBase = type { i32, i32 }
%class.GrowableArrayMetadata = type { i64 }
%class.LIRGenerator = type { %class.InstructionVisitor, %class.BlockClosure, ptr, ptr, %class.PhiResolverState, ptr, i32, %class.BitMap2D, ptr, %class.GrowableArray.0, %class.GrowableArray.3, %class.GrowableArray.6, ptr }
%class.InstructionVisitor = type { ptr }
%class.BlockClosure = type { ptr }
%class.BitMap2D = type { %class.ResourceBitMap, i64 }
%class.ResourceBitMap = type { %class.GrowableBitMap }
%class.GrowableBitMap = type { %class.BitMap }
%class.BitMap = type { ptr, i64 }
%class.GrowableArray.0 = type { %class.GrowableArrayWithAllocator.1, %class.GrowableArrayMetadata }
%class.GrowableArrayWithAllocator.1 = type { %class.GrowableArrayView.2 }
%class.GrowableArrayView.2 = type { %class.GrowableArrayBase, ptr }
%class.GrowableArray.3 = type { %class.GrowableArrayWithAllocator.4, %class.GrowableArrayMetadata }
%class.GrowableArrayWithAllocator.4 = type { %class.GrowableArrayView.5 }
%class.GrowableArrayView.5 = type { %class.GrowableArrayBase, ptr }
%class.GrowableArray.6 = type { %class.GrowableArrayWithAllocator.7, %class.GrowableArrayMetadata }
%class.GrowableArrayWithAllocator.7 = type { %class.GrowableArrayView.8 }
%class.GrowableArrayView.8 = type { %class.GrowableArrayBase, ptr }

@g_assert_poison = external global ptr, align 8
@.str.4 = private unnamed_addr constant [41 x i8] c"src/hotspot/share/c1/c1_LIRGenerator.cpp\00", align 1

; Function Attrs: mustprogress nounwind uwtable
define linkonce_odr hidden noundef ptr @_ZNK12LIRGenerator3lirEv(ptr noundef nonnull align 8 dereferenceable(232) %0) #1 comdat align 2 {
  %2 = alloca ptr, align 8
  store ptr %0, ptr %2, align 8
  %3 = load ptr, ptr %2, align 8
  %4 = getelementptr inbounds %class.LIRGenerator, ptr %3, i32 0, i32 8
  %5 = load ptr, ptr %4, align 8
  ret ptr %5
}

; Function Attrs: mustprogress nounwind uwtable
define linkonce_odr hidden noundef ptr @_ZN12LIRGenerator3genEv(ptr noundef nonnull align 8 dereferenceable(232) %0) #1 comdat align 2 {
  %2 = alloca ptr, align 8
  store ptr %0, ptr %2, align 8
  %3 = load ptr, ptr %2, align 8
  ret ptr %3
}

; Function Attrs: mustprogress nounwind uwtable
define linkonce_odr hidden noundef zeroext i1 @_ZNK7LIR_OprneERKS_(ptr noundef nonnull align 8 dereferenceable(8) %0, ptr noundef nonnull align 8 dereferenceable(8) %1) #1 comdat align 2 {
  %3 = alloca ptr, align 8
  %4 = alloca ptr, align 8
  store ptr %0, ptr %3, align 8
  store ptr %1, ptr %4, align 8
  %5 = load ptr, ptr %3, align 8
  %6 = getelementptr inbounds %class.LIR_Opr, ptr %5, i32 0, i32 0
  %7 = load i64, ptr %6, align 8
  %8 = load ptr, ptr %4, align 8
  %9 = getelementptr inbounds %class.LIR_Opr, ptr %8, i32 0, i32 0
  %10 = load i64, ptr %9, align 8
  %11 = icmp ne i64 %7, %10
  ret i1 %11
}

; Function Attrs: mustprogress nounwind uwtable
define hidden void @_ZN12LIRGenerator8shift_opEN9Bytecodes4CodeE7LIR_OprS2_S2_S2_(ptr noundef nonnull align 8 dereferenceable(232) %0, i32 noundef %1, i64 %2, i64 %3, i64 %4, i64 %5) #1 align 2 {
  %7 = alloca %class.LIR_Opr, align 8
  %8 = alloca %class.LIR_Opr, align 8
  %9 = alloca %class.LIR_Opr, align 8
  %10 = alloca %class.LIR_Opr, align 8
  %11 = alloca ptr, align 8
  %12 = alloca i32, align 4
  %13 = alloca %class.LIR_Opr, align 8
  %14 = alloca %class.LIR_Opr, align 8
  %15 = alloca %class.LIR_Opr, align 8
  %16 = alloca %class.LIR_Opr, align 8
  %17 = alloca %class.LIR_Opr, align 8
  %18 = alloca %class.LIR_Opr, align 8
  %19 = alloca %class.LIR_Opr, align 8
  %20 = alloca %class.LIR_Opr, align 8
  %21 = alloca %class.LIR_Opr, align 8
  %22 = alloca %class.LIR_Opr, align 8
  %23 = alloca %class.LIR_Opr, align 8
  %24 = alloca %class.LIR_Opr, align 8
  %25 = alloca %class.LIR_Opr, align 8
  %26 = alloca %class.LIR_Opr, align 8
  %27 = getelementptr inbounds %class.LIR_Opr, ptr %7, i32 0, i32 0
  store i64 %2, ptr %27, align 8
  %28 = getelementptr inbounds %class.LIR_Opr, ptr %8, i32 0, i32 0
  store i64 %3, ptr %28, align 8
  %29 = getelementptr inbounds %class.LIR_Opr, ptr %9, i32 0, i32 0
  store i64 %4, ptr %29, align 8
  %30 = getelementptr inbounds %class.LIR_Opr, ptr %10, i32 0, i32 0
  store i64 %5, ptr %30, align 8
  store ptr %0, ptr %11, align 8
  store i32 %1, ptr %12, align 4
  %31 = load ptr, ptr %11, align 8
  %32 = call noundef zeroext i1 @_ZNK7LIR_OprneERKS_(ptr noundef nonnull align 8 dereferenceable(8) %8, ptr noundef nonnull align 8 dereferenceable(8) %7)
  br i1 %32, label %33, label %40

33:                                               ; preds = %6
  %34 = call noundef ptr @_ZN12LIRGenerator3genEv(ptr noundef nonnull align 8 dereferenceable(232) %31)
  %35 = call noundef ptr @_ZNK12LIRGenerator3lirEv(ptr noundef nonnull align 8 dereferenceable(232) %34)
  call void @llvm.memcpy.p0.p0.i64(ptr align 8 %13, ptr align 8 %8, i64 8, i1 false)
  call void @llvm.memcpy.p0.p0.i64(ptr align 8 %14, ptr align 8 %7, i64 8, i1 false)
  %36 = getelementptr inbounds %class.LIR_Opr, ptr %13, i32 0, i32 0
  %37 = load i64, ptr %36, align 8
  %38 = getelementptr inbounds %class.LIR_Opr, ptr %14, i32 0, i32 0
  %39 = load i64, ptr %38, align 8
  call void @_ZN8LIR_List4moveE7LIR_OprS0_P12CodeEmitInfo(ptr noundef nonnull align 8 dereferenceable(32) %35, i64 %37, i64 %39, ptr noundef null)
  call void @llvm.memcpy.p0.p0.i64(ptr align 8 %8, ptr align 8 %7, i64 8, i1 false)
  br label %40

40:                                               ; preds = %33, %6
  %41 = load i32, ptr %12, align 4
  switch i32 %41, label %75 [
    i32 120, label %42
    i32 121, label %42
    i32 122, label %53
    i32 123, label %53
    i32 124, label %64
    i32 125, label %64
  ]

42:                                               ; preds = %40, %40
  %43 = call noundef ptr @_ZN12LIRGenerator3genEv(ptr noundef nonnull align 8 dereferenceable(232) %31)
  %44 = call noundef ptr @_ZNK12LIRGenerator3lirEv(ptr noundef nonnull align 8 dereferenceable(232) %43)
  call void @llvm.memcpy.p0.p0.i64(ptr align 8 %15, ptr align 8 %8, i64 8, i1 false)
  call void @llvm.memcpy.p0.p0.i64(ptr align 8 %16, ptr align 8 %9, i64 8, i1 false)
  call void @llvm.memcpy.p0.p0.i64(ptr align 8 %17, ptr align 8 %7, i64 8, i1 false)
  call void @llvm.memcpy.p0.p0.i64(ptr align 8 %18, ptr align 8 %10, i64 8, i1 false)
  %45 = getelementptr inbounds %class.LIR_Opr, ptr %15, i32 0, i32 0
  %46 = load i64, ptr %45, align 8
  %47 = getelementptr inbounds %class.LIR_Opr, ptr %16, i32 0, i32 0
  %48 = load i64, ptr %47, align 8
  %49 = getelementptr inbounds %class.LIR_Opr, ptr %17, i32 0, i32 0
  %50 = load i64, ptr %49, align 8
  %51 = getelementptr inbounds %class.LIR_Opr, ptr %18, i32 0, i32 0
  %52 = load i64, ptr %51, align 8
  call void @_ZN8LIR_List10shift_leftE7LIR_OprS0_S0_S0_(ptr noundef nonnull align 8 dereferenceable(32) %44, i64 %46, i64 %48, i64 %50, i64 %52)
  br label %79

53:                                               ; preds = %40, %40
  %54 = call noundef ptr @_ZN12LIRGenerator3genEv(ptr noundef nonnull align 8 dereferenceable(232) %31)
  %55 = call noundef ptr @_ZNK12LIRGenerator3lirEv(ptr noundef nonnull align 8 dereferenceable(232) %54)
  call void @llvm.memcpy.p0.p0.i64(ptr align 8 %19, ptr align 8 %8, i64 8, i1 false)
  call void @llvm.memcpy.p0.p0.i64(ptr align 8 %20, ptr align 8 %9, i64 8, i1 false)
  call void @llvm.memcpy.p0.p0.i64(ptr align 8 %21, ptr align 8 %7, i64 8, i1 false)
  call void @llvm.memcpy.p0.p0.i64(ptr align 8 %22, ptr align 8 %10, i64 8, i1 false)
  %56 = getelementptr inbounds %class.LIR_Opr, ptr %19, i32 0, i32 0
  %57 = load i64, ptr %56, align 8
  %58 = getelementptr inbounds %class.LIR_Opr, ptr %20, i32 0, i32 0
  %59 = load i64, ptr %58, align 8
  %60 = getelementptr inbounds %class.LIR_Opr, ptr %21, i32 0, i32 0
  %61 = load i64, ptr %60, align 8
  %62 = getelementptr inbounds %class.LIR_Opr, ptr %22, i32 0, i32 0
  %63 = load i64, ptr %62, align 8
  call void @_ZN8LIR_List11shift_rightE7LIR_OprS0_S0_S0_(ptr noundef nonnull align 8 dereferenceable(32) %55, i64 %57, i64 %59, i64 %61, i64 %63)
  br label %79

64:                                               ; preds = %40, %40
  %65 = call noundef ptr @_ZN12LIRGenerator3genEv(ptr noundef nonnull align 8 dereferenceable(232) %31)
  %66 = call noundef ptr @_ZNK12LIRGenerator3lirEv(ptr noundef nonnull align 8 dereferenceable(232) %65)
  call void @llvm.memcpy.p0.p0.i64(ptr align 8 %23, ptr align 8 %8, i64 8, i1 false)
  call void @llvm.memcpy.p0.p0.i64(ptr align 8 %24, ptr align 8 %9, i64 8, i1 false)
  call void @llvm.memcpy.p0.p0.i64(ptr align 8 %25, ptr align 8 %7, i64 8, i1 false)
  call void @llvm.memcpy.p0.p0.i64(ptr align 8 %26, ptr align 8 %10, i64 8, i1 false)
  %67 = getelementptr inbounds %class.LIR_Opr, ptr %23, i32 0, i32 0
  %68 = load i64, ptr %67, align 8
  %69 = getelementptr inbounds %class.LIR_Opr, ptr %24, i32 0, i32 0
  %70 = load i64, ptr %69, align 8
  %71 = getelementptr inbounds %class.LIR_Opr, ptr %25, i32 0, i32 0
  %72 = load i64, ptr %71, align 8
  %73 = getelementptr inbounds %class.LIR_Opr, ptr %26, i32 0, i32 0
  %74 = load i64, ptr %73, align 8
  call void @_ZN8LIR_List20unsigned_shift_rightE7LIR_OprS0_S0_S0_(ptr noundef nonnull align 8 dereferenceable(32) %66, i64 %68, i64 %70, i64 %72, i64 %74)
  br label %79

75:                                               ; preds = %40
  br label %76

76:                                               ; preds = %75
  %77 = load ptr, ptr @g_assert_poison, align 8
  store i8 88, ptr %77, align 1
  call void @_Z28report_should_not_reach_herePKci(ptr noundef @.str.4, i32 noundef 599) #7
  unreachable

78:                                               ; No predecessors!
  br label %79

79:                                               ; preds = %78, %64, %53, %42
  ret void
}