; Function Attrs: mustprogress nounwind uwtable
define hidden void @_ZN12LIRGenerator8shift_opEN9Bytecodes4CodeE7LIR_OprS2_S2_S2_(ptr nocapture noundef nonnull readonly align 8 dereferenceable(232) %0, i32 noundef %1, i64 %2, i64 %3, i64 %4, i64 %5) local_unnamed_addr #3 align 2 {
  %.not = icmp eq i64 %3, %2
  br i1 %.not, label %10, label %7

7:                                                ; preds = %6
  %8 = getelementptr inbounds i8, ptr %0, i64 144
  %9 = load ptr, ptr %8, align 8
  tail call void @_ZN8LIR_List4moveE7LIR_OprS0_P12CodeEmitInfo(ptr noundef nonnull align 8 dereferenceable(32) %9, i64 %3, i64 %2, ptr noundef null)
  br label %10

10:                                               ; preds = %7, %6
  %.sroa.0.0 = phi i64 [ %2, %7 ], [ %3, %6 ]
  switch i32 %1, label %20 [
    i32 120, label %11
    i32 121, label %11
    i32 122, label %14
    i32 123, label %14
    i32 124, label %17
    i32 125, label %17
  ]

11:                                               ; preds = %10, %10
  %12 = getelementptr inbounds i8, ptr %0, i64 144
  %13 = load ptr, ptr %12, align 8
  tail call void @_ZN8LIR_List10shift_leftE7LIR_OprS0_S0_S0_(ptr noundef nonnull align 8 dereferenceable(32) %13, i64 %.sroa.0.0, i64 %4, i64 %2, i64 %5) #17
  br label %22

14:                                               ; preds = %10, %10
  %15 = getelementptr inbounds i8, ptr %0, i64 144
  %16 = load ptr, ptr %15, align 8
  tail call void @_ZN8LIR_List11shift_rightE7LIR_OprS0_S0_S0_(ptr noundef nonnull align 8 dereferenceable(32) %16, i64 %.sroa.0.0, i64 %4, i64 %2, i64 %5) #17
  br label %22

17:                                               ; preds = %10, %10
  %18 = getelementptr inbounds i8, ptr %0, i64 144
  %19 = load ptr, ptr %18, align 8
  tail call void @_ZN8LIR_List20unsigned_shift_rightE7LIR_OprS0_S0_S0_(ptr noundef nonnull align 8 dereferenceable(32) %19, i64 %.sroa.0.0, i64 %4, i64 %2, i64 %5) #17
  br label %22

20:                                               ; preds = %10
  %21 = load ptr, ptr @g_assert_poison, align 8
  store i8 88, ptr %21, align 1
  tail call void @_Z28report_should_not_reach_herePKci(ptr noundef nonnull @.str.4, i32 noundef 599) #18
  unreachable

22:                                               ; preds = %17, %14, %11
  ret void
}